; Function Attrs: null_pointer_is_valid sspstrong uwtable
define internal noundef i32 @cigi3_add_hat_hot_request(ptr noundef %0, ptr readnone captures(none) %1, ptr noundef %2, ptr readnone captures(none) %3) #0 {
  %5 = load i32, ptr @hf_cigi3_hat_hot_request_hat_hot_id, align 4
  %.b37 = load i1, ptr @cigi_byte_order, align 4
  %6 = select i1 %.b37, i32 -2147483648, i32 0
  %7 = tail call ptr @proto_tree_add_item(ptr noundef %2, i32 noundef %5, ptr noundef %0, i32 noundef 0, i32 noundef 2, i32 noundef %6)
  %8 = load i32, ptr @hf_cigi3_hat_hot_request_type, align 4
  %.b36 = load i1, ptr @cigi_byte_order, align 4
  %9 = select i1 %.b36, i32 -2147483648, i32 0
  %10 = tail call ptr @proto_tree_add_item(ptr noundef %2, i32 noundef %8, ptr noundef %0, i32 noundef 2, i32 noundef 1, i32 noundef %9)
  %11 = load i32, ptr @hf_cigi3_hat_hot_request_coordinate_system, align 4
  %.b35 = load i1, ptr @cigi_byte_order, align 4
  %12 = select i1 %.b35, i32 -2147483648, i32 0
  %13 = tail call ptr @proto_tree_add_item(ptr noundef %2, i32 noundef %11, ptr noundef %0, i32 noundef 2, i32 noundef 1, i32 noundef %12)
  %14 = load i32, ptr @cigi_minor_version, align 4
  %15 = icmp sgt i32 %14, 1
  br i1 %15, label %16, label %20

16:                                               ; preds = %4
  %17 = load i32, ptr @hf_cigi3_2_hat_hot_request_update_period, align 4
  %.b34 = load i1, ptr @cigi_byte_order, align 4
  %18 = select i1 %.b34, i32 -2147483648, i32 0
  %19 = tail call ptr @proto_tree_add_item(ptr noundef %2, i32 noundef %17, ptr noundef %0, i32 noundef 3, i32 noundef 1, i32 noundef %18)
  br label %20

20:                                               ; preds = %16, %4
  %21 = load i32, ptr @hf_cigi3_hat_hot_request_entity_id, align 4
  %.b33 = load i1, ptr @cigi_byte_order, align 4
  %22 = select i1 %.b33, i32 -2147483648, i32 0
  %23 = tail call ptr @proto_tree_add_item(ptr noundef %2, i32 noundef %21, ptr noundef %0, i32 noundef 4, i32 noundef 2, i32 noundef %22)
  %24 = load i32, ptr @hf_cigi3_hat_hot_request_lat_xoff, align 4
  %.b32 = load i1, ptr @cigi_byte_order, align 4
  %25 = select i1 %.b32, i32 -2147483648, i32 0
  %26 = tail call ptr @proto_tree_add_item(ptr noundef %2, i32 noundef %24, ptr noundef %0, i32 noundef 6, i32 noundef 8, i32 noundef %25)
  %27 = load i32, ptr @hf_cigi3_hat_hot_request_lon_yoff, align 4
  %.b31 = load i1, ptr @cigi_byte_order, align 4
  %28 = select i1 %.b31, i32 -2147483648, i32 0
  %29 = tail call ptr @proto_tree_add_item(ptr noundef %2, i32 noundef %27, ptr noundef %0, i32 noundef 14, i32 noundef 8, i32 noundef %28)
  %30 = load i32, ptr @hf_cigi3_hat_hot_request_alt_zoff, align 4
  %.b = load i1, ptr @cigi_byte_order, align 4
  %31 = select i1 %.b, i32 -2147483648, i32 0
  %32 = tail call ptr @proto_tree_add_item(ptr noundef %2, i32 noundef %30, ptr noundef %0, i32 noundef 22, i32 noundef 8, i32 noundef %31)
  ret i32 30
}